; Function Attrs: nounwind uwtable
define hidden range(i32 0, 28) i32 @Curl_trc_opt(ptr noundef %0) local_unnamed_addr #0 {
  %2 = alloca ptr, align 8
  %.not = icmp eq ptr %0, null
  br i1 %.not, label %101, label %3

3:                                                ; preds = %1
  call void @llvm.lifetime.start.p0(i64 8, ptr nonnull %2) #8
  %4 = load ptr, ptr @Curl_cstrdup, align 8, !tbaa !91
  %5 = tail call ptr %4(ptr noundef nonnull %0) #8
  %.not.i = icmp eq ptr %5, null
  br i1 %.not.i, label %trc_opt.exit, label %6

6:                                                ; preds = %3
  %7 = call ptr @strtok_r(ptr noundef nonnull %5, ptr noundef nonnull @.str.8, ptr noundef nonnull %2) #8
  %.not2156.i = icmp eq ptr %7, null
  br i1 %.not2156.i, label %._crit_edge.i, label %.lr.ph.i

.lr.ph.i:                                         ; preds = %6, %trc_apply_level_by_category.exit.i
  %.01957.i = phi ptr [ %99, %trc_apply_level_by_category.exit.i ], [ %7, %6 ]
  %8 = load i8, ptr %.01957.i, align 1, !tbaa !78
  switch i8 %8, label %13 [
    i8 45, label %9
    i8 43, label %11
  ]

9:                                                ; preds = %.lr.ph.i
  %10 = getelementptr inbounds nuw i8, ptr %.01957.i, i64 1
  br label %13

11:                                               ; preds = %.lr.ph.i
  %12 = getelementptr inbounds nuw i8, ptr %.01957.i, i64 1
  br label %13

13:                                               ; preds = %11, %9, %.lr.ph.i
  %.1.i = phi ptr [ %12, %11 ], [ %10, %9 ], [ %.01957.i, %.lr.ph.i ]
  %.0.i = phi i32 [ 1, %11 ], [ 0, %9 ], [ 1, %.lr.ph.i ]
  %14 = call i32 @curl_strequal(ptr noundef nonnull %.1.i, ptr noundef nonnull @.str.9) #8
  %.not22.i = icmp eq i32 %14, 0
  br i1 %.not22.i, label %23, label %.split.us.i.i

.split.us.i.i:                                    ; preds = %13, %.split.us.i.i
  %.019.us.i.i = phi i64 [ %18, %.split.us.i.i ], [ 0, %13 ]
  %15 = getelementptr inbounds nuw [13 x %struct.trc_cft_def], ptr @trc_cfts, i64 0, i64 %.019.us.i.i
  %16 = load ptr, ptr %15, align 16, !tbaa !92
  %17 = getelementptr inbounds nuw i8, ptr %16, i64 12
  store i32 %.0.i, ptr %17, align 4, !tbaa !87
  %18 = add nuw nsw i64 %.019.us.i.i, 1
  %exitcond26.not.i.i = icmp eq i64 %18, 13
  br i1 %exitcond26.not.i.i, label %.preheader.split21.us.i.i, label %.split.us.i.i, !llvm.loop !94

.preheader.split21.us.i.i:                        ; preds = %.split.us.i.i, %.preheader.split21.us.i.i
  %.120.us.i.i = phi i64 [ %22, %.preheader.split21.us.i.i ], [ 0, %.split.us.i.i ]
  %19 = getelementptr inbounds nuw [7 x %struct.trc_feat_def], ptr @trc_feats, i64 0, i64 %.120.us.i.i
  %20 = load ptr, ptr %19, align 16, !tbaa !96
  %21 = getelementptr inbounds nuw i8, ptr %20, i64 8
  store i32 %.0.i, ptr %21, align 8, !tbaa !80
  %22 = add nuw nsw i64 %.120.us.i.i, 1
  %exitcond28.not.i.i = icmp eq i64 %22, 7
  br i1 %exitcond28.not.i.i, label %trc_apply_level_by_category.exit.i, label %.preheader.split21.us.i.i, !llvm.loop !98

23:                                               ; preds = %13
  %24 = call i32 @curl_strequal(ptr noundef nonnull %.1.i, ptr noundef nonnull @.str.10) #8
  %.not23.i = icmp eq i32 %24, 0
  br i1 %.not23.i, label %43, label %.split.i.i

.split.i.i:                                       ; preds = %23, %32
  %.019.i.i = phi i64 [ %33, %32 ], [ 0, %23 ]
  %25 = getelementptr inbounds nuw [13 x %struct.trc_cft_def], ptr @trc_cfts, i64 0, i64 %.019.i.i, i32 1
  %26 = load i32, ptr %25, align 8, !tbaa !99
  %27 = and i32 %26, 1
  %.not18.i.i = icmp eq i32 %27, 0
  br i1 %.not18.i.i, label %32, label %28

28:                                               ; preds = %.split.i.i
  %29 = getelementptr inbounds nuw [13 x %struct.trc_cft_def], ptr @trc_cfts, i64 0, i64 %.019.i.i
  %30 = load ptr, ptr %29, align 16, !tbaa !92
  %31 = getelementptr inbounds nuw i8, ptr %30, i64 12
  store i32 %.0.i, ptr %31, align 4, !tbaa !87
  br label %32

32:                                               ; preds = %28, %.split.i.i
  %33 = add nuw nsw i64 %.019.i.i, 1
  %exitcond.not.i.i = icmp eq i64 %33, 13
  br i1 %exitcond.not.i.i, label %.preheader.split21.i.i, label %.split.i.i, !llvm.loop !94

.preheader.split21.i.i:                           ; preds = %32, %41
  %.120.i.i = phi i64 [ %42, %41 ], [ 0, %32 ]
  %34 = getelementptr inbounds nuw [7 x %struct.trc_feat_def], ptr @trc_feats, i64 0, i64 %.120.i.i, i32 1
  %35 = load i32, ptr %34, align 8, !tbaa !100
  %36 = and i32 %35, 1
  %.not16.i.i = icmp eq i32 %36, 0
  br i1 %.not16.i.i, label %41, label %37

37:                                               ; preds = %.preheader.split21.i.i
  %38 = getelementptr inbounds nuw [7 x %struct.trc_feat_def], ptr @trc_feats, i64 0, i64 %.120.i.i
  %39 = load ptr, ptr %38, align 16, !tbaa !96
  %40 = getelementptr inbounds nuw i8, ptr %39, i64 8
  store i32 %.0.i, ptr %40, align 8, !tbaa !80
  br label %41

41:                                               ; preds = %37, %.preheader.split21.i.i
  %42 = add nuw nsw i64 %.120.i.i, 1
  %exitcond27.not.i.i = icmp eq i64 %42, 7
  br i1 %exitcond27.not.i.i, label %trc_apply_level_by_category.exit.i, label %.preheader.split21.i.i, !llvm.loop !98

43:                                               ; preds = %23
  %44 = call i32 @curl_strequal(ptr noundef nonnull %.1.i, ptr noundef nonnull @.str.11) #8
  %.not24.i = icmp eq i32 %44, 0
  br i1 %.not24.i, label %63, label %.split.i28.i

.split.i28.i:                                     ; preds = %43, %52
  %.019.i29.i = phi i64 [ %53, %52 ], [ 0, %43 ]
  %45 = getelementptr inbounds nuw [13 x %struct.trc_cft_def], ptr @trc_cfts, i64 0, i64 %.019.i29.i, i32 1
  %46 = load i32, ptr %45, align 8, !tbaa !99
  %47 = and i32 %46, 2
  %.not18.i30.i = icmp eq i32 %47, 0
  br i1 %.not18.i30.i, label %52, label %48

48:                                               ; preds = %.split.i28.i
  %49 = getelementptr inbounds nuw [13 x %struct.trc_cft_def], ptr @trc_cfts, i64 0, i64 %.019.i29.i
  %50 = load ptr, ptr %49, align 16, !tbaa !92
  %51 = getelementptr inbounds nuw i8, ptr %50, i64 12
  store i32 %.0.i, ptr %51, align 4, !tbaa !87
  br label %52

52:                                               ; preds = %48, %.split.i28.i
  %53 = add nuw nsw i64 %.019.i29.i, 1
  %exitcond.not.i31.i = icmp eq i64 %53, 13
  br i1 %exitcond.not.i31.i, label %.preheader.split21.i33.i, label %.split.i28.i, !llvm.loop !94

.preheader.split21.i33.i:                         ; preds = %52, %61
  %.120.i34.i = phi i64 [ %62, %61 ], [ 0, %52 ]
  %54 = getelementptr inbounds nuw [7 x %struct.trc_feat_def], ptr @trc_feats, i64 0, i64 %.120.i34.i, i32 1
  %55 = load i32, ptr %54, align 8, !tbaa !100
  %56 = and i32 %55, 2
  %.not16.i35.i = icmp eq i32 %56, 0
  br i1 %.not16.i35.i, label %61, label %57

57:                                               ; preds = %.preheader.split21.i33.i
  %58 = getelementptr inbounds nuw [7 x %struct.trc_feat_def], ptr @trc_feats, i64 0, i64 %.120.i34.i
  %59 = load ptr, ptr %58, align 16, !tbaa !96
  %60 = getelementptr inbounds nuw i8, ptr %59, i64 8
  store i32 %.0.i, ptr %60, align 8, !tbaa !80
  br label %61

61:                                               ; preds = %57, %.preheader.split21.i33.i
  %62 = add nuw nsw i64 %.120.i34.i, 1
  %exitcond27.not.i36.i = icmp eq i64 %62, 7
  br i1 %exitcond27.not.i36.i, label %trc_apply_level_by_category.exit.i, label %.preheader.split21.i33.i, !llvm.loop !98

63:                                               ; preds = %43
  %64 = call i32 @curl_strequal(ptr noundef nonnull %.1.i, ptr noundef nonnull @.str.12) #8
  %.not25.i = icmp eq i32 %64, 0
  br i1 %.not25.i, label %.preheader.i, label %.split.i38.i

.split.i38.i:                                     ; preds = %63, %72
  %.019.i39.i = phi i64 [ %73, %72 ], [ 0, %63 ]
  %65 = getelementptr inbounds nuw [13 x %struct.trc_cft_def], ptr @trc_cfts, i64 0, i64 %.019.i39.i, i32 1
  %66 = load i32, ptr %65, align 8, !tbaa !99
  %67 = and i32 %66, 4
  %.not18.i40.i = icmp eq i32 %67, 0
  br i1 %.not18.i40.i, label %72, label %68

68:                                               ; preds = %.split.i38.i
  %69 = getelementptr inbounds nuw [13 x %struct.trc_cft_def], ptr @trc_cfts, i64 0, i64 %.019.i39.i
  %70 = load ptr, ptr %69, align 16, !tbaa !92
  %71 = getelementptr inbounds nuw i8, ptr %70, i64 12
  store i32 %.0.i, ptr %71, align 4, !tbaa !87
  br label %72

72:                                               ; preds = %68, %.split.i38.i
  %73 = add nuw nsw i64 %.019.i39.i, 1
  %exitcond.not.i41.i = icmp eq i64 %73, 13
  br i1 %exitcond.not.i41.i, label %.preheader.split21.i43.i, label %.split.i38.i, !llvm.loop !94

.preheader.split21.i43.i:                         ; preds = %72, %81
  %.120.i44.i = phi i64 [ %82, %81 ], [ 0, %72 ]
  %74 = getelementptr inbounds nuw [7 x %struct.trc_feat_def], ptr @trc_feats, i64 0, i64 %.120.i44.i, i32 1
  %75 = load i32, ptr %74, align 8, !tbaa !100
  %76 = and i32 %75, 4
  %.not16.i45.i = icmp eq i32 %76, 0
  br i1 %.not16.i45.i, label %81, label %77

77:                                               ; preds = %.preheader.split21.i43.i
  %78 = getelementptr inbounds nuw [7 x %struct.trc_feat_def], ptr @trc_feats, i64 0, i64 %.120.i44.i
  %79 = load ptr, ptr %78, align 16, !tbaa !96
  %80 = getelementptr inbounds nuw i8, ptr %79, i64 8
  store i32 %.0.i, ptr %80, align 8, !tbaa !80
  br label %81

81:                                               ; preds = %77, %.preheader.split21.i43.i
  %82 = add nuw nsw i64 %.120.i44.i, 1
  %exitcond27.not.i46.i = icmp eq i64 %82, 7
  br i1 %exitcond27.not.i46.i, label %trc_apply_level_by_category.exit.i, label %.preheader.split21.i43.i, !llvm.loop !98

83:                                               ; preds = %.preheader.i
  %84 = add nuw nsw i64 %.014.i.i, 1
  %exitcond.not.i48.i = icmp eq i64 %84, 13
  br i1 %exitcond.not.i48.i, label %.loopexit12.i.i.preheader, label %.preheader.i, !llvm.loop !101

.preheader.i:                                     ; preds = %63, %83
  %.014.i.i = phi i64 [ %84, %83 ], [ 0, %63 ]
  %85 = getelementptr inbounds nuw [13 x %struct.trc_cft_def], ptr @trc_cfts, i64 0, i64 %.014.i.i
  %86 = load ptr, ptr %85, align 16, !tbaa !92
  %87 = load ptr, ptr %86, align 8, !tbaa !90
  %88 = call i32 @curl_strequal(ptr noundef nonnull %.1.i, ptr noundef %87) #8
  %.not.i.i = icmp eq i32 %88, 0
  br i1 %.not.i.i, label %83, label %89

89:                                               ; preds = %.preheader.i
  %90 = getelementptr inbounds nuw i8, ptr %86, i64 12
  store i32 %.0.i, ptr %90, align 4, !tbaa !87
  br label %.loopexit12.i.i.preheader

.loopexit12.i.i.preheader:                        ; preds = %83, %89
  br label %.loopexit12.i.i

91:                                               ; preds = %.loopexit12.i.i
  %92 = add nuw nsw i64 %.115.i.i, 1
  %exitcond19.not.i.i = icmp eq i64 %92, 7
  br i1 %exitcond19.not.i.i, label %trc_apply_level_by_category.exit.i, label %.loopexit12.i.i, !llvm.loop !102

.loopexit12.i.i:                                  ; preds = %.loopexit12.i.i.preheader, %91
  %.115.i.i = phi i64 [ %92, %91 ], [ 0, %.loopexit12.i.i.preheader ]
  %93 = getelementptr inbounds nuw [7 x %struct.trc_feat_def], ptr @trc_feats, i64 0, i64 %.115.i.i
  %94 = load ptr, ptr %93, align 16, !tbaa !96
  %95 = load ptr, ptr %94, align 8, !tbaa !82
  %96 = call i32 @curl_strequal(ptr noundef nonnull %.1.i, ptr noundef %95) #8
  %.not11.i.i = icmp eq i32 %96, 0
  br i1 %.not11.i.i, label %91, label %97

97:                                               ; preds = %.loopexit12.i.i
  %98 = getelementptr inbounds nuw i8, ptr %94, i64 8
  store i32 %.0.i, ptr %98, align 8, !tbaa !80
  br label %trc_apply_level_by_category.exit.i

trc_apply_level_by_category.exit.i:               ; preds = %.preheader.split21.us.i.i, %41, %61, %81, %91, %97
  %99 = call ptr @strtok_r(ptr noundef null, ptr noundef nonnull @.str.8, ptr noundef nonnull %2) #8
  %.not21.i = icmp eq ptr %99, null
  br i1 %.not21.i, label %._crit_edge.i, label %.lr.ph.i, !llvm.loop !103

._crit_edge.i:                                    ; preds = %trc_apply_level_by_category.exit.i, %6
  %100 = load ptr, ptr @Curl_cfree, align 8, !tbaa !91
  call void %100(ptr noundef nonnull %5) #8
  br label %trc_opt.exit

trc_opt.exit:                                     ; preds = %3, %._crit_edge.i
  %.018.i = phi i32 [ 0, %._crit_edge.i ], [ 27, %3 ]
  call void @llvm.lifetime.end.p0(i64 8, ptr nonnull %2) #8
  br label %101

101:                                              ; preds = %1, %trc_opt.exit
  %102 = phi i32 [ %.018.i, %trc_opt.exit ], [ 0, %1 ]
  ret i32 %102
}